target datalayout = "e-m:e-p270:32:32-p271:32:32-p272:64:64-i64:64-i128:128-f80:128-n8:16:32:64-S128"
target triple = "x86_64-pc-linux-gnu"

%struct.BlockRefTableKey = type { %struct.RelFileLocator, i32 }
%struct.RelFileLocator = type { i32, i32, i32 }
%struct.BlockRefTableEntry = type { %struct.BlockRefTableKey, i32, i8, i32, ptr, ptr, ptr }
%struct.BlockRefTableBuffer = type { ptr, ptr, [65536 x i8], i32, i32, i32 }
%struct.BlockRefTableSerializedEntry = type { %struct.RelFileLocator, i32, i32, i32 }
%struct.BlockRefTableWriter = type { %struct.BlockRefTableBuffer }

@pg_comp_crc32c = external global ptr, align 8

; Function Attrs: nounwind uwtable
define internal void @BlockRefTableWrite(ptr noundef %0, ptr noundef %1, i32 noundef %2) #0 {
  %4 = alloca ptr, align 8
  %5 = alloca ptr, align 8
  %6 = alloca i32, align 4
  store ptr %0, ptr %4, align 8
  store ptr %1, ptr %5, align 8
  store i32 %2, ptr %6, align 4
  %7 = load ptr, ptr @pg_comp_crc32c, align 8
  %8 = load ptr, ptr %4, align 8
  %9 = getelementptr inbounds nuw %struct.BlockRefTableBuffer, ptr %8, i32 0, i32 5
  %10 = load i32, ptr %9, align 8
  %11 = load ptr, ptr %5, align 8
  %12 = load i32, ptr %6, align 4
  %13 = sext i32 %12 to i64
  %14 = call i32 %7(i32 noundef %10, ptr noundef %11, i64 noundef %13)
  %15 = load ptr, ptr %4, align 8
  %16 = getelementptr inbounds nuw %struct.BlockRefTableBuffer, ptr %15, i32 0, i32 5
  store i32 %14, ptr %16, align 8
  %17 = load ptr, ptr %4, align 8
  %18 = getelementptr inbounds nuw %struct.BlockRefTableBuffer, ptr %17, i32 0, i32 3
  %19 = load i32, ptr %18, align 8
  %20 = load i32, ptr %6, align 4
  %21 = add i32 %19, %20
  %22 = icmp sgt i32 %21, 65536
  br i1 %22, label %23, label %39

23:                                               ; preds = %3
  %24 = load ptr, ptr %4, align 8
  %25 = getelementptr inbounds nuw %struct.BlockRefTableBuffer, ptr %24, i32 0, i32 0
  %26 = load ptr, ptr %25, align 8
  %27 = load ptr, ptr %4, align 8
  %28 = getelementptr inbounds nuw %struct.BlockRefTableBuffer, ptr %27, i32 0, i32 1
  %29 = load ptr, ptr %28, align 8
  %30 = load ptr, ptr %4, align 8
  %31 = getelementptr inbounds nuw %struct.BlockRefTableBuffer, ptr %30, i32 0, i32 2
  %32 = getelementptr inbounds [65536 x i8], ptr %31, i64 0, i64 0
  %33 = load ptr, ptr %4, align 8
  %34 = getelementptr inbounds nuw %struct.BlockRefTableBuffer, ptr %33, i32 0, i32 3
  %35 = load i32, ptr %34, align 8
  %36 = call i32 %26(ptr noundef %29, ptr noundef %32, i32 noundef %35)
  %37 = load ptr, ptr %4, align 8
  %38 = getelementptr inbounds nuw %struct.BlockRefTableBuffer, ptr %37, i32 0, i32 3
  store i32 0, ptr %38, align 8
  br label %39

39:                                               ; preds = %23, %3
  %40 = load i32, ptr %6, align 4
  %41 = icmp sge i32 %40, 65536
  br i1 %41, label %42, label %52

42:                                               ; preds = %39
  %43 = load ptr, ptr %4, align 8
  %44 = getelementptr inbounds nuw %struct.BlockRefTableBuffer, ptr %43, i32 0, i32 0
  %45 = load ptr, ptr %44, align 8
  %46 = load ptr, ptr %4, align 8
  %47 = getelementptr inbounds nuw %struct.BlockRefTableBuffer, ptr %46, i32 0, i32 1
  %48 = load ptr, ptr %47, align 8
  %49 = load ptr, ptr %5, align 8
  %50 = load i32, ptr %6, align 4
  %51 = call i32 %45(ptr noundef %48, ptr noundef %49, i32 noundef %50)
  br label %68

52:                                               ; preds = %39
  %53 = load ptr, ptr %4, align 8
  %54 = getelementptr inbounds nuw %struct.BlockRefTableBuffer, ptr %53, i32 0, i32 2
  %55 = load ptr, ptr %4, align 8
  %56 = getelementptr inbounds nuw %struct.BlockRefTableBuffer, ptr %55, i32 0, i32 3
  %57 = load i32, ptr %56, align 8
  %58 = sext i32 %57 to i64
  %59 = getelementptr inbounds [65536 x i8], ptr %54, i64 0, i64 %58
  %60 = load ptr, ptr %5, align 8
  %61 = load i32, ptr %6, align 4
  %62 = sext i32 %61 to i64
  call void @llvm.memcpy.p0.p0.i64(ptr align 1 %59, ptr align 1 %60, i64 %62, i1 false)
  %63 = load i32, ptr %6, align 4
  %64 = load ptr, ptr %4, align 8
  %65 = getelementptr inbounds nuw %struct.BlockRefTableBuffer, ptr %64, i32 0, i32 3
  %66 = load i32, ptr %65, align 8
  %67 = add i32 %66, %63
  store i32 %67, ptr %65, align 8
  br label %68

68:                                               ; preds = %52, %42
  ret void
}

; Function Attrs: nounwind uwtable
define dso_local void @BlockRefTableWriteEntry(ptr noundef %0, ptr noundef %1) #0 {
  %3 = alloca ptr, align 8
  %4 = alloca ptr, align 8
  %5 = alloca %struct.BlockRefTableSerializedEntry, align 4
  %6 = alloca i32, align 4
  store ptr %0, ptr %3, align 8
  store ptr %1, ptr %4, align 8
  call void @llvm.lifetime.start.p0(i64 24, ptr %5) #10
  call void @llvm.lifetime.start.p0(i64 4, ptr %6) #10
  %7 = getelementptr inbounds nuw %struct.BlockRefTableSerializedEntry, ptr %5, i32 0, i32 0
  %8 = load ptr, ptr %4, align 8
  %9 = getelementptr inbounds nuw %struct.BlockRefTableEntry, ptr %8, i32 0, i32 0
  %10 = getelementptr inbounds nuw %struct.BlockRefTableKey, ptr %9, i32 0, i32 0
  call void @llvm.memcpy.p0.p0.i64(ptr align 4 %7, ptr align 8 %10, i64 12, i1 false)
  %11 = load ptr, ptr %4, align 8
  %12 = getelementptr inbounds nuw %struct.BlockRefTableEntry, ptr %11, i32 0, i32 0
  %13 = getelementptr inbounds nuw %struct.BlockRefTableKey, ptr %12, i32 0, i32 1
  %14 = load i32, ptr %13, align 4
  %15 = getelementptr inbounds nuw %struct.BlockRefTableSerializedEntry, ptr %5, i32 0, i32 1
  store i32 %14, ptr %15, align 4
  %16 = load ptr, ptr %4, align 8
  %17 = getelementptr inbounds nuw %struct.BlockRefTableEntry, ptr %16, i32 0, i32 1
  %18 = load i32, ptr %17, align 8
  %19 = getelementptr inbounds nuw %struct.BlockRefTableSerializedEntry, ptr %5, i32 0, i32 2
  store i32 %18, ptr %19, align 4
  %20 = load ptr, ptr %4, align 8
  %21 = getelementptr inbounds nuw %struct.BlockRefTableEntry, ptr %20, i32 0, i32 3
  %22 = load i32, ptr %21, align 8
  %23 = getelementptr inbounds nuw %struct.BlockRefTableSerializedEntry, ptr %5, i32 0, i32 3
  store i32 %22, ptr %23, align 4
  br label %24

24:                                               ; preds = %42, %2
  %25 = getelementptr inbounds nuw %struct.BlockRefTableSerializedEntry, ptr %5, i32 0, i32 3
  %26 = load i32, ptr %25, align 4
  %27 = icmp ugt i32 %26, 0
  br i1 %27, label %28, label %40

28:                                               ; preds = %24
  %29 = load ptr, ptr %4, align 8
  %30 = getelementptr inbounds nuw %struct.BlockRefTableEntry, ptr %29, i32 0, i32 5
  %31 = load ptr, ptr %30, align 8
  %32 = getelementptr inbounds nuw %struct.BlockRefTableSerializedEntry, ptr %5, i32 0, i32 3
  %33 = load i32, ptr %32, align 4
  %34 = sub i32 %33, 1
  %35 = zext i32 %34 to i64
  %36 = getelementptr inbounds nuw i16, ptr %31, i64 %35
  %37 = load i16, ptr %36, align 2
  %38 = zext i16 %37 to i32
  %39 = icmp eq i32 %38, 0
  br label %40

40:                                               ; preds = %28, %24
  %41 = phi i1 [ false, %24 ], [ %39, %28 ]
  br i1 %41, label %42, label %46

42:                                               ; preds = %40
  %43 = getelementptr inbounds nuw %struct.BlockRefTableSerializedEntry, ptr %5, i32 0, i32 3
  %44 = load i32, ptr %43, align 4
  %45 = add i32 %44, -1
  store i32 %45, ptr %43, align 4
  br label %24, !llvm.loop !25

46:                                               ; preds = %40
  %47 = load ptr, ptr %3, align 8
  %48 = getelementptr inbounds nuw %struct.BlockRefTableWriter, ptr %47, i32 0, i32 0
  call void @BlockRefTableWrite(ptr noundef %48, ptr noundef %5, i32 noundef 24)
  %49 = getelementptr inbounds nuw %struct.BlockRefTableSerializedEntry, ptr %5, i32 0, i32 3
  %50 = load i32, ptr %49, align 4
  %51 = icmp ne i32 %50, 0
  br i1 %51, label %52, label %63

52:                                               ; preds = %46
  %53 = load ptr, ptr %3, align 8
  %54 = getelementptr inbounds nuw %struct.BlockRefTableWriter, ptr %53, i32 0, i32 0
  %55 = load ptr, ptr %4, align 8
  %56 = getelementptr inbounds nuw %struct.BlockRefTableEntry, ptr %55, i32 0, i32 5
  %57 = load ptr, ptr %56, align 8
  %58 = getelementptr inbounds nuw %struct.BlockRefTableSerializedEntry, ptr %5, i32 0, i32 3
  %59 = load i32, ptr %58, align 4
  %60 = zext i32 %59 to i64
  %61 = mul i64 %60, 2
  %62 = trunc i64 %61 to i32
  call void @BlockRefTableWrite(ptr noundef %54, ptr noundef %57, i32 noundef %62)
  br label %63

63:                                               ; preds = %52, %46
  store i32 0, ptr %6, align 4
  br label %64

64:                                               ; preds = %101, %63
  %65 = load i32, ptr %6, align 4
  %66 = load ptr, ptr %4, align 8
  %67 = getelementptr inbounds nuw %struct.BlockRefTableEntry, ptr %66, i32 0, i32 3
  %68 = load i32, ptr %67, align 8
  %69 = icmp ult i32 %65, %68
  br i1 %69, label %70, label %104

70:                                               ; preds = %64
  %71 = load ptr, ptr %4, align 8
  %72 = getelementptr inbounds nuw %struct.BlockRefTableEntry, ptr %71, i32 0, i32 5
  %73 = load ptr, ptr %72, align 8
  %74 = load i32, ptr %6, align 4
  %75 = zext i32 %74 to i64
  %76 = getelementptr inbounds nuw i16, ptr %73, i64 %75
  %77 = load i16, ptr %76, align 2
  %78 = zext i16 %77 to i32
  %79 = icmp eq i32 %78, 0
  br i1 %79, label %80, label %81

80:                                               ; preds = %70
  br label %101

81:                                               ; preds = %70
  %82 = load ptr, ptr %3, align 8
  %83 = getelementptr inbounds nuw %struct.BlockRefTableWriter, ptr %82, i32 0, i32 0
  %84 = load ptr, ptr %4, align 8
  %85 = getelementptr inbounds nuw %struct.BlockRefTableEntry, ptr %84, i32 0, i32 6
  %86 = load ptr, ptr %85, align 8
  %87 = load i32, ptr %6, align 4
  %88 = zext i32 %87 to i64
  %89 = getelementptr inbounds nuw ptr, ptr %86, i64 %88
  %90 = load ptr, ptr %89, align 8
  %91 = load ptr, ptr %4, align 8
  %92 = getelementptr inbounds nuw %struct.BlockRefTableEntry, ptr %91, i32 0, i32 5
  %93 = load ptr, ptr %92, align 8
  %94 = load i32, ptr %6, align 4
  %95 = zext i32 %94 to i64
  %96 = getelementptr inbounds nuw i16, ptr %93, i64 %95
  %97 = load i16, ptr %96, align 2
  %98 = zext i16 %97 to i64
  %99 = mul i64 %98, 2
  %100 = trunc i64 %99 to i32
  call void @BlockRefTableWrite(ptr noundef %83, ptr noundef %90, i32 noundef %100)
  br label %101

101:                                              ; preds = %81, %80
  %102 = load i32, ptr %6, align 4
  %103 = add i32 %102, 1
  store i32 %103, ptr %6, align 4
  br label %64, !llvm.loop !26

104:                                              ; preds = %64
  call void @llvm.lifetime.end.p0(i64 4, ptr %6) #10
  call void @llvm.lifetime.end.p0(i64 24, ptr %5) #10
  ret void
}