; Function Attrs: nounwind uwtable
define dso_local void @BlockRefTableWriteEntry(ptr noundef %0, ptr noundef readonly captures(none) %1) local_unnamed_addr #0 {
  %3 = alloca %struct.BlockRefTableSerializedEntry, align 4
  call void @llvm.lifetime.start.p0(i64 24, ptr nonnull %3) #14
  call void @llvm.memcpy.p0.p0.i64(ptr noundef nonnull align 4 dereferenceable(12) %3, ptr noundef nonnull align 8 dereferenceable(12) %1, i64 12, i1 false)
  %4 = getelementptr inbounds nuw i8, ptr %1, i64 12
  %5 = load i32, ptr %4, align 4
  %6 = getelementptr inbounds nuw i8, ptr %3, i64 12
  store i32 %5, ptr %6, align 4
  %7 = getelementptr inbounds nuw i8, ptr %1, i64 16
  %8 = load i32, ptr %7, align 8
  %9 = getelementptr inbounds nuw i8, ptr %3, i64 16
  store i32 %8, ptr %9, align 4
  %10 = getelementptr inbounds nuw i8, ptr %1, i64 24
  %11 = load i32, ptr %10, align 8
  %12 = getelementptr inbounds nuw i8, ptr %3, i64 20
  %13 = getelementptr inbounds nuw i8, ptr %1, i64 40
  %14 = zext i32 %11 to i64
  br label %15

15:                                               ; preds = %17, %2
  %indvars.iv = phi i64 [ %19, %17 ], [ %14, %2 ]
  %16 = trunc nuw i64 %indvars.iv to i32
  store i32 %16, ptr %12, align 4
  %.not = icmp eq i64 %indvars.iv, 0
  br i1 %.not, label %.critedge, label %17

17:                                               ; preds = %15
  %18 = load ptr, ptr %13, align 8
  %19 = add nsw i64 %indvars.iv, -1
  %20 = getelementptr inbounds nuw i16, ptr %18, i64 %19
  %21 = load i16, ptr %20, align 2
  %22 = icmp eq i16 %21, 0
  br i1 %22, label %15, label %.critedge, !llvm.loop !27

.critedge:                                        ; preds = %15, %17
  %23 = load ptr, ptr @pg_comp_crc32c, align 8
  %24 = getelementptr inbounds nuw i8, ptr %0, i64 65560
  %25 = load i32, ptr %24, align 8
  %26 = call i32 %23(i32 noundef %25, ptr noundef nonnull %3, i64 noundef 24) #14
  store i32 %26, ptr %24, align 8
  %27 = getelementptr inbounds nuw i8, ptr %0, i64 65552
  %28 = load i32, ptr %27, align 8
  %29 = add i32 %28, 24
  %30 = icmp sgt i32 %29, 65536
  br i1 %30, label %31, label %BlockRefTableWrite.exit

31:                                               ; preds = %.critedge
  %32 = load ptr, ptr %0, align 8
  %33 = getelementptr inbounds nuw i8, ptr %0, i64 8
  %34 = load ptr, ptr %33, align 8
  %35 = getelementptr inbounds nuw i8, ptr %0, i64 16
  %36 = call i32 %32(ptr noundef %34, ptr noundef nonnull %35, i32 noundef %28) #14
  store i32 0, ptr %27, align 8
  br label %BlockRefTableWrite.exit

BlockRefTableWrite.exit:                          ; preds = %.critedge, %31
  %37 = phi i32 [ 0, %31 ], [ %28, %.critedge ]
  %38 = getelementptr inbounds nuw i8, ptr %0, i64 16
  %39 = sext i32 %37 to i64
  %40 = getelementptr inbounds [65536 x i8], ptr %38, i64 0, i64 %39
  call void @llvm.memcpy.p0.p0.i64(ptr noundef nonnull align 1 dereferenceable(24) %40, ptr noundef nonnull align 4 dereferenceable(24) %3, i64 24, i1 false)
  %41 = load i32, ptr %27, align 8
  %42 = add i32 %41, 24
  store i32 %42, ptr %27, align 8
  %43 = load i32, ptr %12, align 4
  %.not19 = icmp eq i32 %43, 0
  br i1 %.not19, label %BlockRefTableWrite.exit20, label %44

44:                                               ; preds = %BlockRefTableWrite.exit
  %45 = load ptr, ptr %13, align 8
  %46 = shl i32 %43, 1
  %47 = load ptr, ptr @pg_comp_crc32c, align 8
  %48 = load i32, ptr %24, align 8
  %49 = sext i32 %46 to i64
  %50 = call i32 %47(i32 noundef %48, ptr noundef %45, i64 noundef %49) #14
  store i32 %50, ptr %24, align 8
  %51 = load i32, ptr %27, align 8
  %52 = add i32 %51, %46
  %53 = icmp sgt i32 %52, 65536
  br i1 %53, label %54, label %59

54:                                               ; preds = %44
  %55 = load ptr, ptr %0, align 8
  %56 = getelementptr inbounds nuw i8, ptr %0, i64 8
  %57 = load ptr, ptr %56, align 8
  %58 = call i32 %55(ptr noundef %57, ptr noundef nonnull %38, i32 noundef %51) #14
  store i32 0, ptr %27, align 8
  br label %59

59:                                               ; preds = %54, %44
  %60 = phi i32 [ 0, %54 ], [ %51, %44 ]
  %61 = icmp sgt i32 %46, 65535
  br i1 %61, label %62, label %67

62:                                               ; preds = %59
  %63 = load ptr, ptr %0, align 8
  %64 = getelementptr inbounds nuw i8, ptr %0, i64 8
  %65 = load ptr, ptr %64, align 8
  %66 = call i32 %63(ptr noundef %65, ptr noundef %45, i32 noundef %46) #14
  br label %BlockRefTableWrite.exit20

67:                                               ; preds = %59
  %68 = sext i32 %60 to i64
  %69 = getelementptr inbounds [65536 x i8], ptr %38, i64 0, i64 %68
  call void @llvm.memcpy.p0.p0.i64(ptr nonnull align 1 %69, ptr align 1 %45, i64 %49, i1 false)
  %70 = load i32, ptr %27, align 8
  %71 = add i32 %70, %46
  store i32 %71, ptr %27, align 8
  br label %BlockRefTableWrite.exit20

BlockRefTableWrite.exit20:                        ; preds = %67, %62, %BlockRefTableWrite.exit
  %72 = load i32, ptr %10, align 8
  %.not23 = icmp eq i32 %72, 0
  br i1 %.not23, label %._crit_edge, label %.lr.ph

.lr.ph:                                           ; preds = %BlockRefTableWrite.exit20
  %73 = getelementptr inbounds nuw i8, ptr %1, i64 48
  %74 = getelementptr inbounds nuw i8, ptr %0, i64 8
  br label %75

75:                                               ; preds = %.lr.ph, %BlockRefTableWrite.exit21
  %indvars.iv25 = phi i64 [ 0, %.lr.ph ], [ %indvars.iv.next26, %BlockRefTableWrite.exit21 ]
  %76 = load ptr, ptr %13, align 8
  %77 = getelementptr inbounds nuw i16, ptr %76, i64 %indvars.iv25
  %78 = load i16, ptr %77, align 2
  %79 = icmp eq i16 %78, 0
  br i1 %79, label %BlockRefTableWrite.exit21, label %80

80:                                               ; preds = %75
  %81 = load ptr, ptr %73, align 8
  %82 = getelementptr inbounds nuw ptr, ptr %81, i64 %indvars.iv25
  %83 = load ptr, ptr %82, align 8
  %84 = zext i16 %78 to i32
  %85 = shl nuw nsw i32 %84, 1
  %86 = load ptr, ptr @pg_comp_crc32c, align 8
  %87 = load i32, ptr %24, align 8
  %88 = zext nneg i32 %85 to i64
  %89 = call i32 %86(i32 noundef %87, ptr noundef %83, i64 noundef %88) #14
  store i32 %89, ptr %24, align 8
  %90 = load i32, ptr %27, align 8
  %91 = add i32 %90, %85
  %92 = icmp sgt i32 %91, 65536
  br i1 %92, label %93, label %97

93:                                               ; preds = %80
  %94 = load ptr, ptr %0, align 8
  %95 = load ptr, ptr %74, align 8
  %96 = call i32 %94(ptr noundef %95, ptr noundef nonnull %38, i32 noundef %90) #14
  store i32 0, ptr %27, align 8
  br label %97

97:                                               ; preds = %93, %80
  %98 = phi i32 [ 0, %93 ], [ %90, %80 ]
  %99 = icmp slt i16 %78, 0
  br i1 %99, label %100, label %104

100:                                              ; preds = %97
  %101 = load ptr, ptr %0, align 8
  %102 = load ptr, ptr %74, align 8
  %103 = call i32 %101(ptr noundef %102, ptr noundef %83, i32 noundef %85) #14
  br label %BlockRefTableWrite.exit21

104:                                              ; preds = %97
  %105 = sext i32 %98 to i64
  %106 = getelementptr inbounds [65536 x i8], ptr %38, i64 0, i64 %105
  call void @llvm.memcpy.p0.p0.i64(ptr nonnull align 1 %106, ptr align 1 %83, i64 %88, i1 false)
  %107 = load i32, ptr %27, align 8
  %108 = add i32 %107, %85
  store i32 %108, ptr %27, align 8
  br label %BlockRefTableWrite.exit21

BlockRefTableWrite.exit21:                        ; preds = %104, %100, %75
  %indvars.iv.next26 = add nuw nsw i64 %indvars.iv25, 1
  %109 = load i32, ptr %10, align 8
  %110 = zext i32 %109 to i64
  %111 = icmp samesign ult i64 %indvars.iv.next26, %110
  br i1 %111, label %75, label %._crit_edge, !llvm.loop !28

._crit_edge:                                      ; preds = %BlockRefTableWrite.exit21, %BlockRefTableWrite.exit20
  call void @llvm.lifetime.end.p0(i64 24, ptr nonnull %3) #14
  ret void
}